target datalayout = "e-m:e-p270:32:32-p271:32:32-p272:64:64-i64:64-i128:128-f80:128-n8:16:32:64-S128"
target triple = "x86_64-pc-linux-gnu"

%struct.FT_Bitmap_ = type { i32, i32, i32, ptr, i16, i8, i8, ptr }
%struct.FT_LibraryRec_ = type { ptr, i32, i32, i32, i32, [32 x ptr], %struct.FT_ListRec_, ptr, ptr, [4 x ptr], [3 x %struct.FT_Vector_], i32 }
%struct.FT_ListRec_ = type { ptr, ptr }
%struct.FT_Vector_ = type { i64, i64 }

; Function Attrs: nounwind uwtable
define i32 @FT_Bitmap_Copy(ptr noundef %0, ptr noundef %1, ptr noundef %2) #0 {
  %4 = alloca i32, align 4
  %5 = alloca ptr, align 8
  %6 = alloca ptr, align 8
  %7 = alloca ptr, align 8
  %8 = alloca ptr, align 8
  %9 = alloca i32, align 4
  %10 = alloca i32, align 4
  %11 = alloca i32, align 4
  %12 = alloca i32, align 4
  %13 = alloca ptr, align 8
  %14 = alloca ptr, align 8
  store ptr %0, ptr %5, align 8
  store ptr %1, ptr %6, align 8
  store ptr %2, ptr %7, align 8
  store i32 0, ptr %9, align 4
  %15 = load ptr, ptr %5, align 8
  %16 = icmp ne ptr %15, null
  br i1 %16, label %18, label %17

17:                                               ; preds = %3
  store i32 33, ptr %4, align 4
  br label %167

18:                                               ; preds = %3
  %19 = load ptr, ptr %6, align 8
  %20 = icmp ne ptr %19, null
  br i1 %20, label %21, label %24

21:                                               ; preds = %18
  %22 = load ptr, ptr %7, align 8
  %23 = icmp ne ptr %22, null
  br i1 %23, label %25, label %24

24:                                               ; preds = %21, %18
  store i32 6, ptr %4, align 4
  br label %167

25:                                               ; preds = %21
  %26 = load ptr, ptr %6, align 8
  %27 = load ptr, ptr %7, align 8
  %28 = icmp eq ptr %26, %27
  br i1 %28, label %29, label %30

29:                                               ; preds = %25
  store i32 0, ptr %4, align 4
  br label %167

30:                                               ; preds = %25
  %31 = load ptr, ptr %6, align 8
  %32 = getelementptr inbounds %struct.FT_Bitmap_, ptr %31, i32 0, i32 2
  %33 = load i32, ptr %32, align 8
  %34 = icmp slt i32 %33, 0
  br i1 %34, label %35, label %40

35:                                               ; preds = %30
  %36 = load ptr, ptr %7, align 8
  %37 = getelementptr inbounds %struct.FT_Bitmap_, ptr %36, i32 0, i32 2
  %38 = load i32, ptr %37, align 8
  %39 = icmp sgt i32 %38, 0
  br i1 %39, label %52, label %40

40:                                               ; preds = %35, %30
  %41 = load ptr, ptr %6, align 8
  %42 = getelementptr inbounds %struct.FT_Bitmap_, ptr %41, i32 0, i32 2
  %43 = load i32, ptr %42, align 8
  %44 = icmp sgt i32 %43, 0
  br i1 %44, label %45, label %50

45:                                               ; preds = %40
  %46 = load ptr, ptr %7, align 8
  %47 = getelementptr inbounds %struct.FT_Bitmap_, ptr %46, i32 0, i32 2
  %48 = load i32, ptr %47, align 8
  %49 = icmp slt i32 %48, 0
  br label %50

50:                                               ; preds = %45, %40
  %51 = phi i1 [ false, %40 ], [ %49, %45 ]
  br label %52

52:                                               ; preds = %50, %35
  %53 = phi i1 [ true, %35 ], [ %51, %50 ]
  %54 = zext i1 %53 to i32
  store i32 %54, ptr %11, align 4
  %55 = load ptr, ptr %5, align 8
  %56 = getelementptr inbounds %struct.FT_LibraryRec_, ptr %55, i32 0, i32 0
  %57 = load ptr, ptr %56, align 8
  store ptr %57, ptr %8, align 8
  br label %58

58:                                               ; preds = %52
  %59 = load ptr, ptr %8, align 8
  %60 = load ptr, ptr %7, align 8
  %61 = getelementptr inbounds %struct.FT_Bitmap_, ptr %60, i32 0, i32 3
  %62 = load ptr, ptr %61, align 8
  call void @ft_mem_free(ptr noundef %59, ptr noundef %62)
  %63 = load ptr, ptr %7, align 8
  %64 = getelementptr inbounds %struct.FT_Bitmap_, ptr %63, i32 0, i32 3
  store ptr null, ptr %64, align 8
  br label %65

65:                                               ; preds = %58
  %66 = load ptr, ptr %7, align 8
  %67 = load ptr, ptr %6, align 8
  call void @llvm.memcpy.p0.p0.i64(ptr align 8 %66, ptr align 8 %67, i64 40, i1 false)
  %68 = load i32, ptr %11, align 4
  %69 = icmp ne i32 %68, 0
  br i1 %69, label %70, label %77

70:                                               ; preds = %65
  %71 = load ptr, ptr %7, align 8
  %72 = getelementptr inbounds %struct.FT_Bitmap_, ptr %71, i32 0, i32 2
  %73 = load i32, ptr %72, align 8
  %74 = sub nsw i32 0, %73
  %75 = load ptr, ptr %7, align 8
  %76 = getelementptr inbounds %struct.FT_Bitmap_, ptr %75, i32 0, i32 2
  store i32 %74, ptr %76, align 8
  br label %77

77:                                               ; preds = %70, %65
  %78 = load ptr, ptr %6, align 8
  %79 = getelementptr inbounds %struct.FT_Bitmap_, ptr %78, i32 0, i32 3
  %80 = load ptr, ptr %79, align 8
  %81 = icmp ne ptr %80, null
  br i1 %81, label %83, label %82

82:                                               ; preds = %77
  store i32 0, ptr %4, align 4
  br label %167

83:                                               ; preds = %77
  %84 = load ptr, ptr %6, align 8
  %85 = getelementptr inbounds %struct.FT_Bitmap_, ptr %84, i32 0, i32 2
  %86 = load i32, ptr %85, align 8
  store i32 %86, ptr %10, align 4
  %87 = load i32, ptr %10, align 4
  %88 = icmp slt i32 %87, 0
  br i1 %88, label %89, label %92

89:                                               ; preds = %83
  %90 = load i32, ptr %10, align 4
  %91 = sub nsw i32 0, %90
  store i32 %91, ptr %10, align 4
  br label %92

92:                                               ; preds = %89, %83
  %93 = load ptr, ptr %8, align 8
  %94 = load i32, ptr %10, align 4
  %95 = sext i32 %94 to i64
  %96 = load ptr, ptr %7, align 8
  %97 = getelementptr inbounds %struct.FT_Bitmap_, ptr %96, i32 0, i32 0
  %98 = load i32, ptr %97, align 8
  %99 = zext i32 %98 to i64
  %100 = call ptr @ft_mem_qrealloc(ptr noundef %93, i64 noundef %95, i64 noundef 0, i64 noundef %99, ptr noundef null, ptr noundef %9)
  %101 = load ptr, ptr %7, align 8
  %102 = getelementptr inbounds %struct.FT_Bitmap_, ptr %101, i32 0, i32 3
  store ptr %100, ptr %102, align 8
  %103 = load i32, ptr %9, align 4
  %104 = icmp ne i32 %103, 0
  br i1 %104, label %165, label %105

105:                                              ; preds = %92
  %106 = load i32, ptr %11, align 4
  %107 = icmp ne i32 %106, 0
  br i1 %107, label %108, label %150

108:                                              ; preds = %105
  %109 = load ptr, ptr %6, align 8
  %110 = getelementptr inbounds %struct.FT_Bitmap_, ptr %109, i32 0, i32 3
  %111 = load ptr, ptr %110, align 8
  store ptr %111, ptr %13, align 8
  %112 = load ptr, ptr %7, align 8
  %113 = getelementptr inbounds %struct.FT_Bitmap_, ptr %112, i32 0, i32 3
  %114 = load ptr, ptr %113, align 8
  store ptr %114, ptr %14, align 8
  %115 = load i32, ptr %10, align 4
  %116 = sext i32 %115 to i64
  %117 = load ptr, ptr %7, align 8
  %118 = getelementptr inbounds %struct.FT_Bitmap_, ptr %117, i32 0, i32 0
  %119 = load i32, ptr %118, align 8
  %120 = sub i32 %119, 1
  %121 = zext i32 %120 to i64
  %122 = mul i64 %116, %121
  %123 = load ptr, ptr %14, align 8
  %124 = getelementptr inbounds i8, ptr %123, i64 %122
  store ptr %124, ptr %14, align 8
  %125 = load ptr, ptr %7, align 8
  %126 = getelementptr inbounds %struct.FT_Bitmap_, ptr %125, i32 0, i32 0
  %127 = load i32, ptr %126, align 8
  store i32 %127, ptr %12, align 4
  br label %128

128:                                              ; preds = %146, %108
  %129 = load i32, ptr %12, align 4
  %130 = icmp ugt i32 %129, 0
  br i1 %130, label %131, label %149

131:                                              ; preds = %128
  %132 = load ptr, ptr %14, align 8
  %133 = load ptr, ptr %13, align 8
  %134 = load i32, ptr %10, align 4
  %135 = sext i32 %134 to i64
  %136 = mul i64 %135, 1
  call void @llvm.memcpy.p0.p0.i64(ptr align 1 %132, ptr align 1 %133, i64 %136, i1 false)
  %137 = load i32, ptr %10, align 4
  %138 = load ptr, ptr %13, align 8
  %139 = sext i32 %137 to i64
  %140 = getelementptr inbounds i8, ptr %138, i64 %139
  store ptr %140, ptr %13, align 8
  %141 = load i32, ptr %10, align 4
  %142 = load ptr, ptr %14, align 8
  %143 = sext i32 %141 to i64
  %144 = sub i64 0, %143
  %145 = getelementptr inbounds i8, ptr %142, i64 %144
  store ptr %145, ptr %14, align 8
  br label %146

146:                                              ; preds = %131
  %147 = load i32, ptr %12, align 4
  %148 = add i32 %147, -1
  store i32 %148, ptr %12, align 4
  br label %128, !llvm.loop !4

149:                                              ; preds = %128
  br label %164

150:                                              ; preds = %105
  %151 = load ptr, ptr %7, align 8
  %152 = getelementptr inbounds %struct.FT_Bitmap_, ptr %151, i32 0, i32 3
  %153 = load ptr, ptr %152, align 8
  %154 = load ptr, ptr %6, align 8
  %155 = getelementptr inbounds %struct.FT_Bitmap_, ptr %154, i32 0, i32 3
  %156 = load ptr, ptr %155, align 8
  %157 = load ptr, ptr %6, align 8
  %158 = getelementptr inbounds %struct.FT_Bitmap_, ptr %157, i32 0, i32 0
  %159 = load i32, ptr %158, align 8
  %160 = zext i32 %159 to i64
  %161 = load i32, ptr %10, align 4
  %162 = sext i32 %161 to i64
  %163 = mul nsw i64 %160, %162
  call void @llvm.memcpy.p0.p0.i64(ptr align 1 %153, ptr align 1 %156, i64 %163, i1 false)
  br label %164

164:                                              ; preds = %150, %149
  br label %165

165:                                              ; preds = %164, %92
  %166 = load i32, ptr %9, align 4
  store i32 %166, ptr %4, align 4
  br label %167

167:                                              ; preds = %165, %82, %29, %24, %17
  %168 = load i32, ptr %4, align 4
  ret i32 %168
}