; Function Attrs: nounwind uwtable
define i32 @FT_Bitmap_Copy(ptr noundef readonly %0, ptr noundef readonly %1, ptr noundef %2) local_unnamed_addr #2 {
  %4 = alloca i32, align 4
  store i32 0, ptr %4, align 4
  %.not = icmp eq ptr %0, null
  br i1 %.not, label %60, label %5

5:                                                ; preds = %3
  %6 = icmp ne ptr %1, null
  %7 = icmp ne ptr %2, null
  %or.cond = and i1 %6, %7
  br i1 %or.cond, label %8, label %60

8:                                                ; preds = %5
  %9 = icmp eq ptr %1, %2
  br i1 %9, label %60, label %10

10:                                               ; preds = %8
  %11 = getelementptr inbounds i8, ptr %1, i64 8
  %12 = load i32, ptr %11, align 8
  %13 = icmp slt i32 %12, 0
  br i1 %13, label %14, label %18

14:                                               ; preds = %10
  %15 = getelementptr inbounds i8, ptr %2, i64 8
  %16 = load i32, ptr %15, align 8
  %17 = icmp sgt i32 %16, 0
  br label %.thread

18:                                               ; preds = %10
  %.not59 = icmp eq i32 %12, 0
  br i1 %.not59, label %.thread, label %19

19:                                               ; preds = %18
  %20 = getelementptr inbounds i8, ptr %2, i64 8
  %21 = load i32, ptr %20, align 8
  %22 = icmp slt i32 %21, 0
  br label %.thread

.thread:                                          ; preds = %14, %18, %19
  %23 = phi i1 [ false, %18 ], [ %22, %19 ], [ %17, %14 ]
  %24 = load ptr, ptr %0, align 8
  %25 = getelementptr inbounds i8, ptr %2, i64 16
  %26 = load ptr, ptr %25, align 8
  tail call void @ft_mem_free(ptr noundef %24, ptr noundef %26) #7
  store ptr null, ptr %25, align 8
  tail call void @llvm.memcpy.p0.p0.i64(ptr noundef nonnull align 8 dereferenceable(40) %2, ptr noundef nonnull align 8 dereferenceable(40) %1, i64 40, i1 false)
  br i1 %23, label %27, label %31

27:                                               ; preds = %.thread
  %28 = getelementptr inbounds i8, ptr %2, i64 8
  %29 = load i32, ptr %28, align 8
  %30 = sub nsw i32 0, %29
  store i32 %30, ptr %28, align 8
  br label %31

31:                                               ; preds = %27, %.thread
  %32 = getelementptr inbounds i8, ptr %1, i64 16
  %33 = load ptr, ptr %32, align 8
  %.not55 = icmp eq ptr %33, null
  br i1 %.not55, label %60, label %34

34:                                               ; preds = %31
  %35 = load i32, ptr %11, align 8
  %spec.select = tail call i32 @llvm.abs.i32(i32 %35, i1 true)
  %36 = zext nneg i32 %spec.select to i64
  %37 = load i32, ptr %2, align 8
  %38 = zext i32 %37 to i64
  %39 = call ptr @ft_mem_qrealloc(ptr noundef %24, i64 noundef %36, i64 noundef 0, i64 noundef %38, ptr noundef null, ptr noundef nonnull %4) #7
  store ptr %39, ptr %25, align 8
  %40 = load i32, ptr %4, align 4
  %.not56 = icmp eq i32 %40, 0
  br i1 %.not56, label %41, label %.loopexit

41:                                               ; preds = %34
  br i1 %23, label %42, label %54

42:                                               ; preds = %41
  %43 = load i32, ptr %2, align 8
  %.not5760 = icmp eq i32 %43, 0
  br i1 %.not5760, label %.loopexit, label %.lr.ph

.lr.ph:                                           ; preds = %42
  %44 = add i32 %43, -1
  %45 = zext i32 %44 to i64
  %46 = mul nuw nsw i64 %45, %36
  %47 = getelementptr inbounds i8, ptr %39, i64 %46
  %48 = load ptr, ptr %32, align 8
  %49 = sub nsw i64 0, %36
  br label %50

50:                                               ; preds = %.lr.ph, %50
  %.063 = phi ptr [ %47, %.lr.ph ], [ %52, %50 ]
  %.04762 = phi ptr [ %48, %.lr.ph ], [ %51, %50 ]
  %.04861 = phi i32 [ %43, %.lr.ph ], [ %53, %50 ]
  call void @llvm.memcpy.p0.p0.i64(ptr align 1 %.063, ptr align 1 %.04762, i64 %36, i1 false)
  %51 = getelementptr inbounds i8, ptr %.04762, i64 %36
  %52 = getelementptr inbounds i8, ptr %.063, i64 %49
  %53 = add i32 %.04861, -1
  %.not57 = icmp eq i32 %53, 0
  br i1 %.not57, label %.loopexit, label %50, !llvm.loop !4

54:                                               ; preds = %41
  %55 = load ptr, ptr %32, align 8
  %56 = load i32, ptr %1, align 8
  %57 = zext i32 %56 to i64
  %58 = mul nuw nsw i64 %57, %36
  call void @llvm.memcpy.p0.p0.i64(ptr align 1 %39, ptr align 1 %55, i64 %58, i1 false)
  br label %.loopexit

.loopexit:                                        ; preds = %50, %42, %54, %34
  %59 = load i32, ptr %4, align 4
  br label %60

60:                                               ; preds = %31, %8, %5, %3, %.loopexit
  %.049 = phi i32 [ %59, %.loopexit ], [ 33, %3 ], [ 6, %5 ], [ 0, %8 ], [ 0, %31 ]
  ret i32 %.049
}